; Function Attrs: nounwind uwtable
define internal noundef i32 @selective_color_direct_absolute_8(ptr noundef readonly captures(none) %0, ptr noundef readonly captures(none) %1, i32 noundef %2, i32 noundef %3) #0 {
  %5 = getelementptr i8, ptr %0, i64 72
  %.val = load ptr, ptr %5, align 8, !tbaa !33
  %.val3 = load ptr, ptr %1, align 8, !tbaa !36
  %6 = getelementptr i8, ptr %1, i64 8
  %.val4 = load ptr, ptr %6, align 8, !tbaa !38
  %.val4.val = load ptr, ptr %.val4, align 8, !tbaa !50
  %7 = getelementptr i8, ptr %.val4, i64 64
  %.val4.val5 = load i32, ptr %7, align 8, !tbaa !63
  tail call fastcc void @selective_color_8(ptr %.val, ptr %.val3, ptr %.val4.val, i32 %.val4.val5, i32 noundef %2, i32 noundef %3, i32 noundef 1, i32 noundef 0)
  ret i32 0
}